(dp0
S'G_X'
p1
(lp2
S'RD_RDF'
p3
aS'RD_SYM'
p4
aS'RD_PUNC'
p5
aS'RD_UNK'
p6
aS'RD_ECH'
p7
asS'G_V'
p8
(lp9
S'V_VM'
p10
aS'V_VAUX'
p11
asS'G_R'
p12
(lp13
S'RB_ALC'
p14
aS'RB_AMN'
p15
asS'G_SYM'
p16
(lp17
S'QT_QTF'
p18
aS'QT_QTC'
p19
aS'QT_QTO'
p20
asS'G_N'
p21
(lp22
S'N_NN'
p23
aS'N_NNV'
p24
aS'N_NST'
p25
aS'N_NNP'
p26
asS'G_J'
p27
(lp28
S'JJ'
p29
asS'G_PRT'
p30
(lp31
S'RP_RPD'
p32
aS'RP_NEG'
p33
aS'RP_INTF'
p34
aS'RP_INJ'
p35
asS'G_PRP'
p36
(lp37
S'DM_DMD'
p38
aS'DM_DMI'
p39
aS'DM_DMQ'
p40
aS'DM_DMR'
p41
as.